target datalayout = "e-m:e-p270:32:32-p271:32:32-p272:64:64-i64:64-i128:128-f80:128-n8:16:32:64-S128"
target triple = "x86_64-pc-linux-gnu"

%struct._SPI_connection = type { i64, ptr, i32, %struct.slist_head, ptr, ptr, ptr, i32, ptr, i8, i8, i64, ptr, i32 }
%struct.slist_head = type { %struct.slist_node }
%struct.slist_node = type { ptr }
%struct.slist_mutable_iter = type { ptr, ptr, ptr }
%struct.SPITupleTable = type { ptr, ptr, i64, i64, ptr, %struct.slist_node, i32 }

@SPI_tuptable = dso_local global ptr null, align 8
@.str.1 = private unnamed_addr constant [6 x i8] c"spi.c\00", align 1
@_SPI_current = internal global ptr null, align 8
@.str.9 = private unnamed_addr constant [43 x i8] c"attempt to delete invalid SPITupleTable %p\00", align 1
@__func__.SPI_freetuptable = private unnamed_addr constant [17 x i8] c"SPI_freetuptable\00", align 1

; Function Attrs: inlinehint nounwind uwtable
define internal void @slist_delete_current(ptr noundef %0) #4 {
  %2 = alloca ptr, align 8
  store ptr %0, ptr %2, align 8
  %3 = load ptr, ptr %2, align 8
  %4 = getelementptr inbounds nuw %struct.slist_mutable_iter, ptr %3, i32 0, i32 1
  %5 = load ptr, ptr %4, align 8
  %6 = load ptr, ptr %2, align 8
  %7 = getelementptr inbounds nuw %struct.slist_mutable_iter, ptr %6, i32 0, i32 2
  %8 = load ptr, ptr %7, align 8
  %9 = getelementptr inbounds nuw %struct.slist_node, ptr %8, i32 0, i32 0
  store ptr %5, ptr %9, align 8
  %10 = load ptr, ptr %2, align 8
  %11 = getelementptr inbounds nuw %struct.slist_mutable_iter, ptr %10, i32 0, i32 2
  %12 = load ptr, ptr %11, align 8
  %13 = load ptr, ptr %2, align 8
  %14 = getelementptr inbounds nuw %struct.slist_mutable_iter, ptr %13, i32 0, i32 0
  store ptr %12, ptr %14, align 8
  ret void
}

; Function Attrs: nounwind uwtable
define dso_local void @SPI_freetuptable(ptr noundef %0) #0 {
  %2 = alloca ptr, align 8
  %3 = alloca i8, align 1
  %4 = alloca i32, align 4
  %5 = alloca %struct.slist_mutable_iter, align 8
  %6 = alloca i32, align 4
  %7 = alloca i32, align 4
  %8 = alloca ptr, align 8
  %9 = alloca i32, align 4
  %10 = alloca i32, align 4
  store ptr %0, ptr %2, align 8
  call void @llvm.lifetime.start.p0(i64 1, ptr %3) #9
  store i8 0, ptr %3, align 1
  %11 = load ptr, ptr %2, align 8
  %12 = icmp eq ptr %11, null
  br i1 %12, label %13, label %14

13:                                               ; preds = %1
  store i32 1, ptr %4, align 4
  br label %120

14:                                               ; preds = %1
  %15 = load ptr, ptr @_SPI_current, align 8
  %16 = icmp ne ptr %15, null
  br i1 %16, label %17, label %87

17:                                               ; preds = %14
  call void @llvm.lifetime.start.p0(i64 24, ptr %5) #9
  br label %18

18:                                               ; preds = %17
  br label %19

19:                                               ; preds = %18
  br label %20

20:                                               ; preds = %19
  store i32 1, ptr %6, align 4
  br label %21

21:                                               ; preds = %20
  br label %22

22:                                               ; preds = %21
  br label %23

23:                                               ; preds = %22
  store i32 1, ptr %7, align 4
  %24 = load ptr, ptr @_SPI_current, align 8
  %25 = getelementptr inbounds nuw %struct._SPI_connection, ptr %24, i32 0, i32 3
  %26 = getelementptr inbounds nuw %struct.slist_head, ptr %25, i32 0, i32 0
  %27 = getelementptr inbounds nuw %struct.slist_mutable_iter, ptr %5, i32 0, i32 2
  store ptr %26, ptr %27, align 8
  %28 = getelementptr inbounds nuw %struct.slist_mutable_iter, ptr %5, i32 0, i32 2
  %29 = load ptr, ptr %28, align 8
  %30 = getelementptr inbounds nuw %struct.slist_node, ptr %29, i32 0, i32 0
  %31 = load ptr, ptr %30, align 8
  %32 = getelementptr inbounds nuw %struct.slist_mutable_iter, ptr %5, i32 0, i32 0
  store ptr %31, ptr %32, align 8
  %33 = getelementptr inbounds nuw %struct.slist_mutable_iter, ptr %5, i32 0, i32 0
  %34 = load ptr, ptr %33, align 8
  %35 = icmp ne ptr %34, null
  br i1 %35, label %36, label %41

36:                                               ; preds = %23
  %37 = getelementptr inbounds nuw %struct.slist_mutable_iter, ptr %5, i32 0, i32 0
  %38 = load ptr, ptr %37, align 8
  %39 = getelementptr inbounds nuw %struct.slist_node, ptr %38, i32 0, i32 0
  %40 = load ptr, ptr %39, align 8
  br label %42

41:                                               ; preds = %23
  br label %42

42:                                               ; preds = %41, %36
  %43 = phi ptr [ %40, %36 ], [ null, %41 ]
  %44 = getelementptr inbounds nuw %struct.slist_mutable_iter, ptr %5, i32 0, i32 1
  store ptr %43, ptr %44, align 8
  br label %45

45:                                               ; preds = %83, %42
  %46 = getelementptr inbounds nuw %struct.slist_mutable_iter, ptr %5, i32 0, i32 0
  %47 = load ptr, ptr %46, align 8
  %48 = icmp ne ptr %47, null
  br i1 %48, label %49, label %86

49:                                               ; preds = %45
  call void @llvm.lifetime.start.p0(i64 8, ptr %8) #9
  br label %50

50:                                               ; preds = %49
  br label %51

51:                                               ; preds = %50
  br label %52

52:                                               ; preds = %51
  store i32 1, ptr %9, align 4
  br label %53

53:                                               ; preds = %52
  br label %54

54:                                               ; preds = %53
  br label %55

55:                                               ; preds = %54
  store i32 1, ptr %10, align 4
  %56 = getelementptr inbounds nuw %struct.slist_mutable_iter, ptr %5, i32 0, i32 0
  %57 = load ptr, ptr %56, align 8
  %58 = getelementptr inbounds i8, ptr %57, i64 -40
  store ptr %58, ptr %8, align 8
  %59 = load ptr, ptr %8, align 8
  %60 = load ptr, ptr %2, align 8
  %61 = icmp eq ptr %59, %60
  br i1 %61, label %62, label %63

62:                                               ; preds = %55
  call void @slist_delete_current(ptr noundef %5)
  store i8 1, ptr %3, align 1
  store i32 2, ptr %4, align 4
  br label %64

63:                                               ; preds = %55
  store i32 0, ptr %4, align 4
  br label %64

64:                                               ; preds = %63, %62
  call void @llvm.lifetime.end.p0(i64 8, ptr %8) #9
  %65 = load i32, ptr %4, align 4
  switch i32 %65, label %123 [
    i32 0, label %66
    i32 2, label %86
  ]

66:                                               ; preds = %64
  br label %67

67:                                               ; preds = %66
  %68 = getelementptr inbounds nuw %struct.slist_mutable_iter, ptr %5, i32 0, i32 0
  %69 = load ptr, ptr %68, align 8
  %70 = getelementptr inbounds nuw %struct.slist_mutable_iter, ptr %5, i32 0, i32 2
  store ptr %69, ptr %70, align 8
  %71 = getelementptr inbounds nuw %struct.slist_mutable_iter, ptr %5, i32 0, i32 1
  %72 = load ptr, ptr %71, align 8
  %73 = getelementptr inbounds nuw %struct.slist_mutable_iter, ptr %5, i32 0, i32 0
  store ptr %72, ptr %73, align 8
  %74 = getelementptr inbounds nuw %struct.slist_mutable_iter, ptr %5, i32 0, i32 1
  %75 = load ptr, ptr %74, align 8
  %76 = icmp ne ptr %75, null
  br i1 %76, label %77, label %82

77:                                               ; preds = %67
  %78 = getelementptr inbounds nuw %struct.slist_mutable_iter, ptr %5, i32 0, i32 1
  %79 = load ptr, ptr %78, align 8
  %80 = getelementptr inbounds nuw %struct.slist_node, ptr %79, i32 0, i32 0
  %81 = load ptr, ptr %80, align 8
  br label %83

82:                                               ; preds = %67
  br label %83

83:                                               ; preds = %82, %77
  %84 = phi ptr [ %81, %77 ], [ null, %82 ]
  %85 = getelementptr inbounds nuw %struct.slist_mutable_iter, ptr %5, i32 0, i32 1
  store ptr %84, ptr %85, align 8
  br label %45, !llvm.loop !22

86:                                               ; preds = %64, %45
  call void @llvm.lifetime.end.p0(i64 24, ptr %5) #9
  br label %87

87:                                               ; preds = %86, %14
  %88 = load i8, ptr %3, align 1, !range !4, !noundef !5
  %89 = trunc i8 %88 to i1
  br i1 %89, label %102, label %90

90:                                               ; preds = %87
  br label %91

91:                                               ; preds = %90
  br i1 false, label %92, label %94

92:                                               ; preds = %91
  %93 = call zeroext i1 @errstart_cold(i32 noundef 19, ptr noundef null) #10
  br i1 %93, label %96, label %99

94:                                               ; preds = %91
  %95 = call zeroext i1 @errstart(i32 noundef 19, ptr noundef null)
  br i1 %95, label %96, label %99

96:                                               ; preds = %94, %92
  %97 = load ptr, ptr %2, align 8
  %98 = call i32 (ptr, ...) @errmsg_internal(ptr noundef @.str.9, ptr noundef %97)
  call void @errfinish(ptr noundef @.str.1, i32 noundef 1424, ptr noundef @__func__.SPI_freetuptable)
  br label %99

99:                                               ; preds = %96, %94, %92
  br label %100

100:                                              ; preds = %99
  br label %101

101:                                              ; preds = %100
  store i32 1, ptr %4, align 4
  br label %120

102:                                              ; preds = %87
  %103 = load ptr, ptr %2, align 8
  %104 = load ptr, ptr @_SPI_current, align 8
  %105 = getelementptr inbounds nuw %struct._SPI_connection, ptr %104, i32 0, i32 1
  %106 = load ptr, ptr %105, align 8
  %107 = icmp eq ptr %103, %106
  br i1 %107, label %108, label %111

108:                                              ; preds = %102
  %109 = load ptr, ptr @_SPI_current, align 8
  %110 = getelementptr inbounds nuw %struct._SPI_connection, ptr %109, i32 0, i32 1
  store ptr null, ptr %110, align 8
  br label %111

111:                                              ; preds = %108, %102
  %112 = load ptr, ptr %2, align 8
  %113 = load ptr, ptr @SPI_tuptable, align 8
  %114 = icmp eq ptr %112, %113
  br i1 %114, label %115, label %116

115:                                              ; preds = %111
  store ptr null, ptr @SPI_tuptable, align 8
  br label %116

116:                                              ; preds = %115, %111
  %117 = load ptr, ptr %2, align 8
  %118 = getelementptr inbounds nuw %struct.SPITupleTable, ptr %117, i32 0, i32 4
  %119 = load ptr, ptr %118, align 8
  call void @MemoryContextDelete(ptr noundef %119)
  store i32 0, ptr %4, align 4
  br label %120

120:                                              ; preds = %116, %101, %13
  call void @llvm.lifetime.end.p0(i64 1, ptr %3) #9
  %121 = load i32, ptr %4, align 4
  switch i32 %121, label %123 [
    i32 0, label %122
    i32 1, label %122
  ]

122:                                              ; preds = %120, %120
  ret void

123:                                              ; preds = %120, %64
  unreachable
}