; Function Attrs: nounwind uwtable
define dso_local void @SPI_freetuptable(ptr noundef %0) local_unnamed_addr #0 {
  %2 = icmp eq ptr %0, null
  br i1 %2, label %30, label %3

3:                                                ; preds = %1
  %4 = load ptr, ptr @_SPI_current, align 8
  %.not = icmp eq ptr %4, null
  br i1 %.not, label %.critedge, label %5

5:                                                ; preds = %3
  %6 = getelementptr inbounds nuw i8, ptr %4, i64 24
  %7 = load ptr, ptr %6, align 8
  %.not13 = icmp eq ptr %7, null
  br i1 %.not13, label %.critedge, label %.lr.ph.preheader

.lr.ph.preheader:                                 ; preds = %5
  %8 = load ptr, ptr %7, align 8
  %9 = getelementptr inbounds i8, ptr %7, i64 -40
  %10 = icmp eq ptr %9, %0
  br i1 %10, label %.thread25, label %.lr.ph41

.lr.ph:                                           ; preds = %.lr.ph41
  %11 = load ptr, ptr %18, align 8
  %12 = getelementptr inbounds i8, ptr %18, i64 -40
  %13 = icmp eq ptr %12, %0
  br i1 %13, label %.thread25, label %.lr.ph41, !llvm.loop !8

.thread25:                                        ; preds = %.lr.ph, %.lr.ph.preheader
  %.sroa.10.030.lcssa = phi ptr [ %6, %.lr.ph.preheader ], [ %storemerge32.sink40, %.lr.ph ]
  %.lcssa = phi ptr [ %8, %.lr.ph.preheader ], [ %11, %.lr.ph ]
  store ptr %.lcssa, ptr %.sroa.10.030.lcssa, align 8
  %14 = load ptr, ptr @_SPI_current, align 8
  %15 = getelementptr inbounds nuw i8, ptr %14, i64 8
  %16 = load ptr, ptr %15, align 8
  %17 = icmp eq ptr %0, %16
  br i1 %17, label %22, label %23

.lr.ph41:                                         ; preds = %.lr.ph.preheader, %.lr.ph
  %18 = phi ptr [ %11, %.lr.ph ], [ %8, %.lr.ph.preheader ]
  %storemerge32.sink40 = phi ptr [ %18, %.lr.ph ], [ %7, %.lr.ph.preheader ]
  %.not15 = icmp eq ptr %18, null
  br i1 %.not15, label %.critedge, label %.lr.ph, !llvm.loop !8

.critedge:                                        ; preds = %.lr.ph41, %5, %3
  %19 = tail call zeroext i1 @errstart(i32 noundef 19, ptr noundef null) #15
  br i1 %19, label %20, label %30

20:                                               ; preds = %.critedge
  %21 = tail call i32 (ptr, ...) @errmsg_internal(ptr noundef nonnull @.str.9, ptr noundef nonnull %0) #15
  tail call void @errfinish(ptr noundef nonnull @.str.1, i32 noundef 1424, ptr noundef nonnull @__func__.SPI_freetuptable) #15
  br label %30

22:                                               ; preds = %.thread25
  store ptr null, ptr %15, align 8
  br label %23

23:                                               ; preds = %22, %.thread25
  %24 = load ptr, ptr @SPI_tuptable, align 8
  %25 = icmp eq ptr %0, %24
  br i1 %25, label %26, label %27

26:                                               ; preds = %23
  store ptr null, ptr @SPI_tuptable, align 8
  br label %27

27:                                               ; preds = %26, %23
  %28 = getelementptr inbounds nuw i8, ptr %0, i64 32
  %29 = load ptr, ptr %28, align 8
  tail call void @MemoryContextDelete(ptr noundef %29) #15
  br label %30

30:                                               ; preds = %.critedge, %20, %1, %27
  ret void
}